target datalayout = "e-m:e-p270:32:32-p271:32:32-p272:64:64-i64:64-i128:128-f80:128-n8:16:32:64-S128"
target triple = "x86_64-pc-linux-gnu"

%struct._YR_COMPILER = type { i32, i32, i32, i32, i32, [1 x %struct.__jmp_buf_tag], ptr, ptr, ptr, ptr, ptr, ptr, ptr, ptr, ptr, ptr, ptr, ptr, ptr, ptr, i32, i32, [4 x ptr], [4 x ptr], i32, i32, i32, [16 x ptr], i32, [16 x ptr], i32, [256 x i8], [1024 x i8], ptr, i16, [1024 x i8], ptr, %struct.rq, %struct.cs, ptr, i32 }
%struct.__jmp_buf_tag = type { [8 x i64], i32, %struct.__sigset_t }
%struct.__sigset_t = type { [16 x i64] }
%struct.rq = type { ptr, ptr }
%struct.cs = type { ptr, ptr }

; Function Attrs: nounwind uwtable
define ptr @yr_compiler_get_current_file_name(ptr noundef %0) #0 {
  %2 = alloca ptr, align 8
  %3 = alloca ptr, align 8
  store ptr %0, ptr %3, align 8
  %4 = load ptr, ptr %3, align 8
  %5 = getelementptr inbounds %struct._YR_COMPILER, ptr %4, i32 0, i32 28
  %6 = load i32, ptr %5, align 8
  %7 = icmp sgt i32 %6, 0
  br i1 %7, label %8, label %18

8:                                                ; preds = %1
  %9 = load ptr, ptr %3, align 8
  %10 = getelementptr inbounds %struct._YR_COMPILER, ptr %9, i32 0, i32 27
  %11 = load ptr, ptr %3, align 8
  %12 = getelementptr inbounds %struct._YR_COMPILER, ptr %11, i32 0, i32 28
  %13 = load i32, ptr %12, align 8
  %14 = sub nsw i32 %13, 1
  %15 = sext i32 %14 to i64
  %16 = getelementptr inbounds [16 x ptr], ptr %10, i64 0, i64 %15
  %17 = load ptr, ptr %16, align 8
  store ptr %17, ptr %2, align 8
  br label %19

18:                                               ; preds = %1
  store ptr null, ptr %2, align 8
  br label %19

19:                                               ; preds = %18, %8
  %20 = load ptr, ptr %2, align 8
  ret ptr %20
}