; Function Attrs: mustprogress nofree norecurse nosync nounwind willreturn memory(argmem: read) uwtable
define ptr @yr_compiler_get_current_file_name(ptr nocapture noundef readonly %0) local_unnamed_addr #6 {
  %2 = getelementptr inbounds i8, ptr %0, i64 552
  %3 = load i32, ptr %2, align 8
  %4 = icmp sgt i32 %3, 0
  br i1 %4, label %5, label %11

5:                                                ; preds = %1
  %6 = getelementptr inbounds i8, ptr %0, i64 424
  %7 = add nsw i32 %3, -1
  %8 = zext nneg i32 %7 to i64
  %9 = getelementptr inbounds [16 x ptr], ptr %6, i64 0, i64 %8
  %10 = load ptr, ptr %9, align 8
  br label %11

11:                                               ; preds = %1, %5
  %.0 = phi ptr [ %10, %5 ], [ null, %1 ]
  ret ptr %.0
}